; Function Attrs: nounwind uwtable
define internal i32 @pwdmodule_traverse(ptr noundef %0, ptr noundef readonly captures(none) %1, ptr noundef %2) #0 {
  %4 = tail call ptr @PyModule_GetState(ptr noundef %0) #4
  %5 = load ptr, ptr %4, align 8, !tbaa !4
  %.not = icmp eq ptr %5, null
  br i1 %.not, label %10, label %6

6:                                                ; preds = %3
  %7 = tail call ptr @PyModule_GetState(ptr noundef %0) #4
  %8 = load ptr, ptr %7, align 8, !tbaa !4
  %9 = tail call i32 %1(ptr noundef %8, ptr noundef %2) #4
  %.not8.not = icmp eq i32 %9, 0
  br i1 %.not8.not, label %10, label %11

10:                                               ; preds = %6, %3
  br label %11

11:                                               ; preds = %6, %10
  %.1 = phi i32 [ %9, %6 ], [ 0, %10 ]
  ret i32 %.1
}